target datalayout = "e-m:e-p270:32:32-p271:32:32-p272:64:64-i64:64-i128:128-f80:128-n8:16:32:64-S128"
target triple = "x86_64-pc-linux-gnu"

%"struct.(anonymous namespace)::cpp_main_caller" = type { ptr, i32, ptr }

; Function Attrs: mustprogress uwtable
define internal noundef i32 @_ZN12_GLOBAL__N_115cpp_main_callerclEv(ptr noundef nonnull align 8 dereferenceable(24) %0) #4 align 2 {
  %2 = alloca ptr, align 8
  store ptr %0, ptr %2, align 8, !tbaa !3
  %3 = load ptr, ptr %2, align 8
  %4 = getelementptr inbounds nuw %"struct.(anonymous namespace)::cpp_main_caller", ptr %3, i32 0, i32 0
  %5 = load ptr, ptr %4, align 8, !tbaa !19
  %6 = getelementptr inbounds nuw %"struct.(anonymous namespace)::cpp_main_caller", ptr %3, i32 0, i32 1
  %7 = load i32, ptr %6, align 8, !tbaa !21
  %8 = getelementptr inbounds nuw %"struct.(anonymous namespace)::cpp_main_caller", ptr %3, i32 0, i32 2
  %9 = load ptr, ptr %8, align 8, !tbaa !22
  %10 = call noundef i32 %5(i32 noundef %7, ptr noundef %9)
  ret i32 %10
}

; Function Attrs: mustprogress uwtable
define internal noundef i32 @_ZN5boost6detail8function20function_obj_invokerIN12_GLOBAL__N_115cpp_main_callerEiJEE6invokeERNS1_15function_bufferE(ptr noundef nonnull align 8 dereferenceable(24) %0) #4 align 2 {
  %2 = alloca ptr, align 8
  %3 = alloca ptr, align 8
  store ptr %0, ptr %2, align 8, !tbaa !3
  call void @llvm.lifetime.start.p0(i64 8, ptr %3) #3
  %4 = load ptr, ptr %2, align 8, !tbaa !3
  %5 = getelementptr inbounds [24 x i8], ptr %4, i64 0, i64 0
  store ptr %5, ptr %3, align 8, !tbaa !3
  %6 = load ptr, ptr %3, align 8, !tbaa !3
  %7 = call noundef i32 @_ZN12_GLOBAL__N_115cpp_main_callerclEv(ptr noundef nonnull align 8 dereferenceable(24) %6)
  call void @llvm.lifetime.end.p0(i64 8, ptr %3) #3
  ret i32 %7
}