; Function Attrs: mustprogress uwtable
define internal noundef i32 @_ZN5boost6detail8function20function_obj_invokerIN12_GLOBAL__N_115cpp_main_callerEiJEE6invokeERNS1_15function_bufferE(ptr nocapture noundef nonnull readonly align 8 dereferenceable(24) %0) #3 align 2 {
  %2 = load ptr, ptr %0, align 8, !tbaa !60
  %3 = getelementptr inbounds nuw i8, ptr %0, i64 8
  %4 = load i32, ptr %3, align 8, !tbaa !62
  %5 = getelementptr inbounds nuw i8, ptr %0, i64 16
  %6 = load ptr, ptr %5, align 8, !tbaa !63
  %7 = tail call noundef i32 %2(i32 noundef %4, ptr noundef %6)
  ret i32 %7
}